target datalayout = "e-m:e-p270:32:32-p271:32:32-p272:64:64-i64:64-i128:128-f80:128-n8:16:32:64-S128"
target triple = "x86_64-pc-linux-gnu"

%struct.formnode = type { i16, i16, i16, i32, i32, i32, i32, i16, i16, i16, i32, ptr, ptr, ptr, ptr, ptr, ptr, ptr, ptr, ptr, ptr, ptr }
%struct.fieldnode = type { i16, i16, i16, i16, i16, i32, i32, i32, i32, i16, i16, i16, i16, i32, i32, i32, i32, ptr, ptr, ptr, ptr, ptr, ptr, ptr, ptr }

; Function Attrs: nounwind uwtable
define internal i32 @VSC_Generic(ptr noundef %0, i32 noundef %1) #0 {
  %3 = alloca ptr, align 8
  %4 = alloca i32, align 4
  %5 = alloca ptr, align 8
  %6 = alloca i32, align 4
  %7 = alloca i32, align 4
  store ptr %0, ptr %3, align 8, !tbaa !4
  store i32 %1, ptr %4, align 4, !tbaa !35
  call void @llvm.lifetime.start.p0(i64 8, ptr %5) #9
  %8 = load ptr, ptr %3, align 8, !tbaa !4
  %9 = getelementptr inbounds nuw %struct.formnode, ptr %8, i32 0, i32 15
  %10 = load ptr, ptr %9, align 8, !tbaa !16
  store ptr %10, ptr %5, align 8, !tbaa !17
  call void @llvm.lifetime.start.p0(i64 4, ptr %6) #9
  store i32 -12, ptr %6, align 4, !tbaa !35
  call void @llvm.lifetime.start.p0(i64 4, ptr %7) #9
  %11 = load i32, ptr %4, align 4, !tbaa !35
  %12 = icmp sgt i32 %11, 0
  br i1 %12, label %13, label %15

13:                                               ; preds = %2
  %14 = load i32, ptr %4, align 4, !tbaa !35
  br label %18

15:                                               ; preds = %2
  %16 = load i32, ptr %4, align 4, !tbaa !35
  %17 = sub nsw i32 0, %16
  br label %18

18:                                               ; preds = %15, %13
  %19 = phi i32 [ %14, %13 ], [ %17, %15 ]
  store i32 %19, ptr %7, align 4, !tbaa !35
  %20 = load i32, ptr %4, align 4, !tbaa !35
  %21 = icmp sgt i32 %20, 0
  br i1 %21, label %22, label %65

22:                                               ; preds = %18
  %23 = load i32, ptr %7, align 4, !tbaa !35
  %24 = load ptr, ptr %3, align 8, !tbaa !4
  %25 = getelementptr inbounds nuw %struct.formnode, ptr %24, i32 0, i32 5
  %26 = load i32, ptr %25, align 8, !tbaa !32
  %27 = add nsw i32 %23, %26
  %28 = load ptr, ptr %5, align 8, !tbaa !17
  %29 = getelementptr inbounds nuw %struct.fieldnode, ptr %28, i32 0, i32 5
  %30 = load i32, ptr %29, align 4, !tbaa !27
  %31 = load ptr, ptr %5, align 8, !tbaa !17
  %32 = getelementptr inbounds nuw %struct.fieldnode, ptr %31, i32 0, i32 1
  %33 = load i16, ptr %32, align 2, !tbaa !28
  %34 = sext i16 %33 to i32
  %35 = sub nsw i32 %30, %34
  %36 = icmp sgt i32 %27, %35
  br i1 %36, label %37, label %50

37:                                               ; preds = %22
  %38 = load ptr, ptr %5, align 8, !tbaa !17
  %39 = getelementptr inbounds nuw %struct.fieldnode, ptr %38, i32 0, i32 5
  %40 = load i32, ptr %39, align 4, !tbaa !27
  %41 = load ptr, ptr %5, align 8, !tbaa !17
  %42 = getelementptr inbounds nuw %struct.fieldnode, ptr %41, i32 0, i32 1
  %43 = load i16, ptr %42, align 2, !tbaa !28
  %44 = sext i16 %43 to i32
  %45 = sub nsw i32 %40, %44
  %46 = load ptr, ptr %3, align 8, !tbaa !4
  %47 = getelementptr inbounds nuw %struct.formnode, ptr %46, i32 0, i32 5
  %48 = load i32, ptr %47, align 8, !tbaa !32
  %49 = sub nsw i32 %45, %48
  store i32 %49, ptr %7, align 4, !tbaa !35
  br label %50

50:                                               ; preds = %37, %22
  %51 = load i32, ptr %7, align 4, !tbaa !35
  %52 = icmp sgt i32 %51, 0
  br i1 %52, label %53, label %64

53:                                               ; preds = %50
  %54 = load i32, ptr %7, align 4, !tbaa !35
  %55 = load ptr, ptr %3, align 8, !tbaa !4
  %56 = getelementptr inbounds nuw %struct.formnode, ptr %55, i32 0, i32 3
  %57 = load i32, ptr %56, align 8, !tbaa !21
  %58 = add nsw i32 %57, %54
  store i32 %58, ptr %56, align 8, !tbaa !21
  %59 = load i32, ptr %7, align 4, !tbaa !35
  %60 = load ptr, ptr %3, align 8, !tbaa !4
  %61 = getelementptr inbounds nuw %struct.formnode, ptr %60, i32 0, i32 5
  %62 = load i32, ptr %61, align 8, !tbaa !32
  %63 = add nsw i32 %62, %59
  store i32 %63, ptr %61, align 8, !tbaa !32
  store i32 0, ptr %6, align 4, !tbaa !35
  br label %64

64:                                               ; preds = %53, %50
  br label %90

65:                                               ; preds = %18
  %66 = load i32, ptr %7, align 4, !tbaa !35
  %67 = load ptr, ptr %3, align 8, !tbaa !4
  %68 = getelementptr inbounds nuw %struct.formnode, ptr %67, i32 0, i32 5
  %69 = load i32, ptr %68, align 8, !tbaa !32
  %70 = icmp sgt i32 %66, %69
  br i1 %70, label %71, label %75

71:                                               ; preds = %65
  %72 = load ptr, ptr %3, align 8, !tbaa !4
  %73 = getelementptr inbounds nuw %struct.formnode, ptr %72, i32 0, i32 5
  %74 = load i32, ptr %73, align 8, !tbaa !32
  store i32 %74, ptr %7, align 4, !tbaa !35
  br label %75

75:                                               ; preds = %71, %65
  %76 = load i32, ptr %7, align 4, !tbaa !35
  %77 = icmp sgt i32 %76, 0
  br i1 %77, label %78, label %89

78:                                               ; preds = %75
  %79 = load i32, ptr %7, align 4, !tbaa !35
  %80 = load ptr, ptr %3, align 8, !tbaa !4
  %81 = getelementptr inbounds nuw %struct.formnode, ptr %80, i32 0, i32 3
  %82 = load i32, ptr %81, align 8, !tbaa !21
  %83 = sub nsw i32 %82, %79
  store i32 %83, ptr %81, align 8, !tbaa !21
  %84 = load i32, ptr %7, align 4, !tbaa !35
  %85 = load ptr, ptr %3, align 8, !tbaa !4
  %86 = getelementptr inbounds nuw %struct.formnode, ptr %85, i32 0, i32 5
  %87 = load i32, ptr %86, align 8, !tbaa !32
  %88 = sub nsw i32 %87, %84
  store i32 %88, ptr %86, align 8, !tbaa !32
  store i32 0, ptr %6, align 4, !tbaa !35
  br label %89

89:                                               ; preds = %78, %75
  br label %90

90:                                               ; preds = %89, %64
  %91 = load i32, ptr %6, align 4, !tbaa !35
  call void @llvm.lifetime.end.p0(i64 4, ptr %7) #9
  call void @llvm.lifetime.end.p0(i64 4, ptr %6) #9
  call void @llvm.lifetime.end.p0(i64 8, ptr %5) #9
  ret i32 %91
}

; Function Attrs: nounwind uwtable
define internal i32 @VSC_Scroll_Line_Backward(ptr noundef %0) #0 {
  %2 = alloca ptr, align 8
  store ptr %0, ptr %2, align 8, !tbaa !4
  %3 = load ptr, ptr %2, align 8, !tbaa !4
  %4 = call i32 @VSC_Generic(ptr noundef %3, i32 noundef -1)
  ret i32 %4
}