; Function Attrs: mustprogress nofree norecurse nosync nounwind willreturn memory(argmem: readwrite) uwtable
define internal range(i32 -12, 1) i32 @VSC_Scroll_Line_Backward(ptr noundef captures(none) %0) #8 {
  %2 = getelementptr inbounds nuw i8, ptr %0, i64 16
  %3 = load i32, ptr %2, align 8, !tbaa !29
  %4 = icmp sgt i32 %3, 0
  br i1 %4, label %5, label %VSC_Generic.exit

5:                                                ; preds = %1
  %6 = getelementptr inbounds nuw i8, ptr %0, i64 8
  %7 = load i32, ptr %6, align 8, !tbaa !17
  %8 = add nsw i32 %7, -1
  store i32 %8, ptr %6, align 8, !tbaa !17
  %9 = add nsw i32 %3, -1
  store i32 %9, ptr %2, align 8, !tbaa !29
  br label %VSC_Generic.exit

VSC_Generic.exit:                                 ; preds = %1, %5
  %.025.i = phi i32 [ 0, %5 ], [ -12, %1 ]
  ret i32 %.025.i
}